; Function Attrs: mustprogress nofree norecurse nosync nounwind willreturn memory(argmem: write) uwtable
define internal noundef zeroext i1 @"_ZNSt17_Function_handlerIFPKN7rocksdb10ComparatorERKNSt7__cxx1112basic_stringIcSt11char_traitsIcESaIcEEEPSt10unique_ptrIS2_St14default_deleteIS2_EEPS9_EZNS0_L26RegisterBuiltinComparatorsERNS0_13ObjectLibraryESB_E3$_1E10_M_managerERSt9_Any_dataRKSN_St18_Manager_operation"(ptr noundef nonnull writeonly align 8 captures(none) dereferenceable(16) %0, ptr noundef nonnull align 8 dereferenceable(16) %1, i32 noundef %2) #22 align 2 personality ptr @__gxx_personality_v0 {
  switch i32 %2, label %"_ZNSt14_Function_base13_Base_managerIZN7rocksdbL26RegisterBuiltinComparatorsERNS1_13ObjectLibraryERKNSt7__cxx1112basic_stringIcSt11char_traitsIcESaIcEEEE3$_1E10_M_managerERSt9_Any_dataRKSE_St18_Manager_operation.exit" [
    i32 1, label %"_ZNSt14_Function_base13_Base_managerIZN7rocksdbL26RegisterBuiltinComparatorsERNS1_13ObjectLibraryERKNSt7__cxx1112basic_stringIcSt11char_traitsIcESaIcEEEE3$_1E10_M_managerERSt9_Any_dataRKSE_St18_Manager_operation.exit.sink.split"
    i32 0, label %4
  ]

4:                                                ; preds = %3
  br label %"_ZNSt14_Function_base13_Base_managerIZN7rocksdbL26RegisterBuiltinComparatorsERNS1_13ObjectLibraryERKNSt7__cxx1112basic_stringIcSt11char_traitsIcESaIcEEEE3$_1E10_M_managerERSt9_Any_dataRKSE_St18_Manager_operation.exit.sink.split"

"_ZNSt14_Function_base13_Base_managerIZN7rocksdbL26RegisterBuiltinComparatorsERNS1_13ObjectLibraryERKNSt7__cxx1112basic_stringIcSt11char_traitsIcESaIcEEEE3$_1E10_M_managerERSt9_Any_dataRKSE_St18_Manager_operation.exit.sink.split": ; preds = %3, %4
  %.sink = phi ptr [ null, %4 ], [ %1, %3 ]
  store ptr %.sink, ptr %0, align 8, !tbaa !43
  br label %"_ZNSt14_Function_base13_Base_managerIZN7rocksdbL26RegisterBuiltinComparatorsERNS1_13ObjectLibraryERKNSt7__cxx1112basic_stringIcSt11char_traitsIcESaIcEEEE3$_1E10_M_managerERSt9_Any_dataRKSE_St18_Manager_operation.exit"

"_ZNSt14_Function_base13_Base_managerIZN7rocksdbL26RegisterBuiltinComparatorsERNS1_13ObjectLibraryERKNSt7__cxx1112basic_stringIcSt11char_traitsIcESaIcEEEE3$_1E10_M_managerERSt9_Any_dataRKSE_St18_Manager_operation.exit": ; preds = %"_ZNSt14_Function_base13_Base_managerIZN7rocksdbL26RegisterBuiltinComparatorsERNS1_13ObjectLibraryERKNSt7__cxx1112basic_stringIcSt11char_traitsIcESaIcEEEE3$_1E10_M_managerERSt9_Any_dataRKSE_St18_Manager_operation.exit.sink.split", %3
  ret i1 false
}